******************************************************************************
             TMS320C2000 Linker PC v5.2.3                      
******************************************************************************
>> Linked Thu Jul 01 16:58:21 2010

OUTPUT FILE NAME:   <PFC2PhiL.out>
ENTRY POINT SYMBOL: "_c_int00"  address: 00008e95


MEMORY CONFIGURATION

         name            origin    length      used     unused   attr    fill
----------------------  --------  ---------  --------  --------  ----  --------
PAGE 0:
  BEGIN                 00000000   00000002  00000002  00000000  RWIX
  RAMM0                 00000002   000003fe  00000297  00000167  RWIX
  progRAM               000083b0   00000c50  00000bf9  00000057  RWIX
  BOOTROM               003ff000   00000fc0  00000000  00000fc0  RWIX
  RESET                 003fffc0   00000002  00000000  00000002  RWIX

PAGE 1:
  RAMM1                 00000400   00000400  00000380  00000080  RWIX
  DEV_EMU               00000880   00000105  00000004  00000101  RWIX
  SYS_PWR_CTL           00000985   00000003  00000003  00000000  RWIX
  FLASH_REGS            00000a80   00000060  00000008  00000058  RWIX
  CSM                   00000ae0   00000010  00000010  00000000  RWIX
  ADC_RESULT            00000b00   00000020  00000020  00000000  RWIX
  CPU_TIMER0            00000c00   00000008  00000008  00000000  RWIX
  CPU_TIMER1            00000c08   00000008  00000008  00000000  RWIX
  CPU_TIMER2            00000c10   00000008  00000008  00000000  RWIX
  PIE_CTRL              00000ce0   00000020  0000001a  00000006  RWIX
  PIE_VECT              00000d00   00000100  00000100  00000000  RWIX
  COMP1                 00006400   00000020  00000011  0000000f  RWIX
  COMP2                 00006420   00000020  00000011  0000000f  RWIX
  EPWM1                 00006800   00000040  0000003a  00000006  RWIX
  EPWM2                 00006840   00000040  0000003a  00000006  RWIX
  EPWM3                 00006880   00000040  0000003a  00000006  RWIX
  EPWM4                 000068c0   00000040  0000003a  00000006  RWIX
  ECAP1                 00006a00   00000020  00000020  00000000  RWIX
  GPIOCTRL              00006f80   00000040  00000040  00000000  RWIX
  GPIODAT               00006fc0   00000020  00000020  00000000  RWIX
  GPIOINT               00006fe0   00000020  0000000a  00000016  RWIX
  SYSTEM                00007010   00000020  0000001f  00000001  RWIX
  SPIA                  00007040   00000010  00000010  00000000  RWIX
  SCIA                  00007050   00000010  00000010  00000000  RWIX
  NMIINTRUPT            00007060   00000010  00000010  00000000  RWIX
  XINTRUPT              00007070   00000010  00000010  00000000  RWIX
  ADC                   00007100   00000080  00000050  00000030  RWIX
  I2CA                  00007900   00000040  00000022  0000001e  RWIX
  dataRAM               00008000   000003b0  000002bd  000000f3  RWIX
  PARTID                003d7fff   00000001  00000001  00000000  RWIX
  CSM_PWL               003f7ff8   00000008  00000008  00000000  RWIX


SECTION ALLOCATION MAP

 output                                  attributes/
section   page    origin      length       input sections
--------  ----  ----------  ----------   ----------------
codestart 
*          0    00000000    00000002     
                  00000000    00000002     DSP2802x_CodeStartBranch.obj (codestart)

.pinit     0    00000002    00000000     UNINITIALIZED

ramfuncs   0    00000002    0000018f     
                  00000002    00000170     PFC2PhiL-DPL-ISR.obj (ramfuncs)
                  00000172    0000001b     PFC2PHIL-DevInit_F2802x.obj (ramfuncs)
                  0000018d    00000004     DSP2802x_usDelay.obj (ramfuncs)

.cinit     0    00000191    00000108     
                  00000191    000000e9     PFC2PhiL-Main.obj (.cinit)
                  0000027a    0000000a     rts2800_ml.lib : _lock.obj (.cinit)
                  00000284    0000000a                    : exit.obj (.cinit)
                  0000028e    00000009     Comp_DrvGlobalVars.obj (.cinit)
                  00000297    00000002     --HOLE-- [fill = 0]

.text      0    000083b0    00000bf9     
                  000083b0    0000062b     PFC2PhiL-Main.obj (.text)
                  000089db    000001bf     ADC_SOC_Cnf.obj (.text)
                  00008b9a    000000fc     PFC2PHIL-DevInit_F2802x.obj (.text)
                  00008c96    000000b1     PWM_PFC2PhiL_Cnf.obj (.text)
                  00008d47    00000083     rts2800_ml.lib : fs_div.obj (.text)
                  00008dca    00000071     PFC2PhiL-DPL-ISR.obj (.text)
                  00008e3b    0000005a     rts2800_ml.lib : fs_mpy.obj (.text)
                  00008e95    00000044                    : boot.obj (.text)
                  00008ed9    0000002b     DacDrvCnf.obj (.text)
                  00008f04    00000025     rts2800_ml.lib : fs_toi.obj (.text)
                  00008f29    00000021                    : fs_toul.obj (.text)
                  00008f4a    0000001b                    : args_main.obj (.text)
                  00008f65    0000001a                    : l_tofs.obj (.text)
                  00008f7f    00000019                    : exit.obj (.text)
                  00008f98    00000009                    : _lock.obj (.text)
                  00008fa1    00000008     DSP2802x_CodeStartBranch.obj (.text)

.reset     0    003fffc0    00000002     DSECT
                  003fffc0    00000002     rts2800_ml.lib : boot.obj (.reset)

.stack     1    00000400    00000380     UNINITIALIZED
                  00000400    00000380     --HOLE--

DevEmuRegsFile 
*          1    00000880    00000004     UNINITIALIZED
                  00000880    00000004     DSP2802x_GlobalVariableDefs.obj (DevEmuRegsFile)

SysPwrCtrlRegsFile 
*          1    00000985    00000003     UNINITIALIZED
                  00000985    00000003     DSP2802x_GlobalVariableDefs.obj (SysPwrCtrlRegsFile)

FlashRegsFile 
*          1    00000a80    00000008     UNINITIALIZED
                  00000a80    00000008     DSP2802x_GlobalVariableDefs.obj (FlashRegsFile)

CsmRegsFile 
*          1    00000ae0    00000010     UNINITIALIZED
                  00000ae0    00000010     DSP2802x_GlobalVariableDefs.obj (CsmRegsFile)

AdcResultFile 
*          1    00000b00    00000020     UNINITIALIZED
                  00000b00    00000020     DSP2802x_GlobalVariableDefs.obj (AdcResultFile)

CpuTimer0RegsFile 
*          1    00000c00    00000008     UNINITIALIZED
                  00000c00    00000008     DSP2802x_GlobalVariableDefs.obj (CpuTimer0RegsFile)

CpuTimer1RegsFile 
*          1    00000c08    00000008     UNINITIALIZED
                  00000c08    00000008     DSP2802x_GlobalVariableDefs.obj (CpuTimer1RegsFile)

CpuTimer2RegsFile 
*          1    00000c10    00000008     UNINITIALIZED
                  00000c10    00000008     DSP2802x_GlobalVariableDefs.obj (CpuTimer2RegsFile)

PieCtrlRegsFile 
*          1    00000ce0    0000001a     UNINITIALIZED
                  00000ce0    0000001a     DSP2802x_GlobalVariableDefs.obj (PieCtrlRegsFile)

PieVectTableFile 
*          1    00000d00    00000100     UNINITIALIZED
                  00000d00    00000100     DSP2802x_GlobalVariableDefs.obj (PieVectTableFile)

EmuKeyVar 
*          1    00000d00    00000001     UNINITIALIZED
                  00000d00    00000001     DSP2802x_GlobalVariableDefs.obj (EmuKeyVar)

EmuBModeVar 
*          1    00000d01    00000001     UNINITIALIZED
                  00000d01    00000001     DSP2802x_GlobalVariableDefs.obj (EmuBModeVar)

FlashCallbackVar 
*          1    00000d02    00000002     UNINITIALIZED
                  00000d02    00000002     DSP2802x_GlobalVariableDefs.obj (FlashCallbackVar)

FlashScalingVar 
*          1    00000d04    00000002     UNINITIALIZED
                  00000d04    00000002     DSP2802x_GlobalVariableDefs.obj (FlashScalingVar)

Comp1RegsFile 
*          1    00006400    00000011     UNINITIALIZED
                  00006400    00000011     DSP2802x_GlobalVariableDefs.obj (Comp1RegsFile)

Comp2RegsFile 
*          1    00006420    00000011     UNINITIALIZED
                  00006420    00000011     DSP2802x_GlobalVariableDefs.obj (Comp2RegsFile)

EPwm1RegsFile 
*          1    00006800    0000003a     UNINITIALIZED
                  00006800    0000003a     DSP2802x_GlobalVariableDefs.obj (EPwm1RegsFile)

EPwm2RegsFile 
*          1    00006840    0000003a     UNINITIALIZED
                  00006840    0000003a     DSP2802x_GlobalVariableDefs.obj (EPwm2RegsFile)

EPwm3RegsFile 
*          1    00006880    0000003a     UNINITIALIZED
                  00006880    0000003a     DSP2802x_GlobalVariableDefs.obj (EPwm3RegsFile)

EPwm4RegsFile 
*          1    000068c0    0000003a     UNINITIALIZED
                  000068c0    0000003a     DSP2802x_GlobalVariableDefs.obj (EPwm4RegsFile)

ECap1RegsFile 
*          1    00006a00    00000020     UNINITIALIZED
                  00006a00    00000020     DSP2802x_GlobalVariableDefs.obj (ECap1RegsFile)

GpioCtrlRegsFile 
*          1    00006f80    00000040     UNINITIALIZED
                  00006f80    00000040     DSP2802x_GlobalVariableDefs.obj (GpioCtrlRegsFile)

GpioDataRegsFile 
*          1    00006fc0    00000020     UNINITIALIZED
                  00006fc0    00000020     DSP2802x_GlobalVariableDefs.obj (GpioDataRegsFile)

GpioIntRegsFile 
*          1    00006fe0    0000000a     UNINITIALIZED
                  00006fe0    0000000a     DSP2802x_GlobalVariableDefs.obj (GpioIntRegsFile)

SysCtrlRegsFile 
*          1    00007010    0000001f     UNINITIALIZED
                  00007010    0000001f     DSP2802x_GlobalVariableDefs.obj (SysCtrlRegsFile)

SpiaRegsFile 
*          1    00007040    00000010     UNINITIALIZED
                  00007040    00000010     DSP2802x_GlobalVariableDefs.obj (SpiaRegsFile)

SciaRegsFile 
*          1    00007050    00000010     UNINITIALIZED
                  00007050    00000010     DSP2802x_GlobalVariableDefs.obj (SciaRegsFile)

NmiIntruptRegsFile 
*          1    00007060    00000010     UNINITIALIZED
                  00007060    00000010     DSP2802x_GlobalVariableDefs.obj (NmiIntruptRegsFile)

XIntruptRegsFile 
*          1    00007070    00000010     UNINITIALIZED
                  00007070    00000010     DSP2802x_GlobalVariableDefs.obj (XIntruptRegsFile)

AdcRegsFile 
*          1    00007100    00000050     UNINITIALIZED
                  00007100    00000050     DSP2802x_GlobalVariableDefs.obj (AdcRegsFile)

I2caRegsFile 
*          1    00007900    00000022     UNINITIALIZED
                  00007900    00000022     DSP2802x_GlobalVariableDefs.obj (I2caRegsFile)

.ebss      1    00008000    000001ae     UNINITIALIZED
                  00008000    000001a0     PFC2PhiL-Main.obj (.ebss)
                  000081a0    00000006     Comp_DrvGlobalVars.obj (.ebss)
                  000081a6    00000004     rts2800_ml.lib : _lock.obj (.ebss)
                  000081aa    00000004                    : exit.obj (.ebss)

MATH_EMAVG_Section 
*          1    000081ae    0000000c     UNINITIALIZED
                  000081ae    0000000c     PFC2PhiL-DPL-ISR.obj (MATH_EMAVG_Section)

PWMDRV_PFC2PhiL_Section 
*          1    000081ba    00000006     UNINITIALIZED
                  000081ba    00000006     PFC2PhiL-DPL-ISR.obj (PWMDRV_PFC2PhiL_Section)

DLOG_BUFF 
*          1    000081c0    00000080     UNINITIALIZED
                  000081c0    00000080     PFC2PhiL-Main.obj (DLOG_BUFF)

CNTL_2P2Z_Section 
*          1    00008240    00000024     UNINITIALIZED
                  00008240    00000024     PFC2PhiL-DPL-ISR.obj (CNTL_2P2Z_Section)

CNTL_2P2Z_Coef 
*          1    00008264    0000001c     UNINITIALIZED
                  00008264    0000001c     PFC2PhiL-Main.obj (CNTL_2P2Z_Coef)

DLOG_4ch_Section 
*          1    00008280    0000001b     UNINITIALIZED
                  00008280    0000001b     PFC2PhiL-DPL-ISR.obj (DLOG_4ch_Section)

PFC_INVSQR_Section 
*          1    0000829c    0000000c     UNINITIALIZED
                  0000829c    0000000c     PFC2PhiL-DPL-ISR.obj (PFC_INVSQR_Section)

PFC_ICMD_Section 
*          1    000082a8    0000000a     UNINITIALIZED
                  000082a8    0000000a     PFC2PhiL-DPL-ISR.obj (PFC_ICMD_Section)

ADCDRV_4ch_Section 
*          1    000082b2    00000008     UNINITIALIZED
                  000082b2    00000008     PFC2PhiL-DPL-ISR.obj (ADCDRV_4ch_Section)

ISRVariables 
*          1    000082ba    00000002     UNINITIALIZED
                  000082ba    00000002     PFC2PhiL-DPL-ISR.obj (ISRVariables)

ZeroNet_Section 
*          1    000082bc    00000002     UNINITIALIZED
                  000082bc    00000002     PFC2PhiL-DPL-ISR.obj (ZeroNet_Section)

PartIdRegsFile 
*          1    003d7fff    00000001     UNINITIALIZED
                  003d7fff    00000001     DSP2802x_GlobalVariableDefs.obj (PartIdRegsFile)

CsmPwlFile 
*          1    003f7ff8    00000008     UNINITIALIZED
                  003f7ff8    00000008     DSP2802x_GlobalVariableDefs.obj (CsmPwlFile)


GLOBAL SYMBOLS: SORTED ALPHABETICALLY BY Name 

address    name
--------   ----
000083b0   .text
00008f7f   C$$EXIT
00008d47   FS$$DIV
00008e3b   FS$$MPY
00008f04   FS$$TOI
00008f29   FS$$TOUL
00008f65   L$$TOFS
00008639   _A0
0000867e   _A1
000080e0   _ACQPS
000082b2   _ADCDRV_4ch_RltPtrA
000082b4   _ADCDRV_4ch_RltPtrB
000082b6   _ADCDRV_4ch_RltPtrC
000082b8   _ADCDRV_4ch_RltPtrD
000089db   _ADC_SOC_CNF
00008068   _A_Task_Ptr
00007100   _AdcRegs
00000b00   _AdcResult
0000806c   _Alpha_State_Ptr
00008652   _B0
0000872b   _B1
00008879   _B2
00008884   _B3
0000806a   _B_Task_Ptr
00008006   _BlinkStatePtr
00008668   _C0
00008943   _C1
0000897a   _C2
00008998   _C3
00008258   _CNTL_2P2Z_Coef1
00008246   _CNTL_2P2Z_Coef2
00008264   _CNTL_2P2Z_CoefStruct1
00008272   _CNTL_2P2Z_CoefStruct2
0000825a   _CNTL_2P2Z_DBUFF1
00008248   _CNTL_2P2Z_DBUFF2
00008254   _CNTL_2P2Z_Fdbk1
00008242   _CNTL_2P2Z_Fdbk2
00008256   _CNTL_2P2Z_Out1
00008244   _CNTL_2P2Z_Out2
00008252   _CNTL_2P2Z_Ref1
00008240   _CNTL_2P2Z_Ref2
00008066   _C_Task_Ptr
000080d0   _ChSel
00008005   _ClearFaultFlg
00008026   _CommsOKflg
000081a0   _Comp
00006400   _Comp1Regs
00006420   _Comp2Regs
00008036   _CompAmpltd
0000800d   _Comp_temp1
00008015   _Comp_temp2
00000c00   _CpuTimer0Regs
00000c08   _CpuTimer1Regs
00000c10   _CpuTimer2Regs
003f7ff8   _CsmPwl
00000ae0   _CsmRegs
00008220   _DBUFF1
00008200   _DBUFF2
000081c0   _DBUFF3
000081e0   _DBUFF4
00008294   _DLOG_4ch_PreScalar
00008296   _DLOG_4ch_Size
00008290   _DLOG_4ch_TrigVal
00008288   _DLOG_4ch_buff1Ptr
0000828a   _DLOG_4ch_buff2Ptr
0000828c   _DLOG_4ch_buff3Ptr
0000828e   _DLOG_4ch_buff4Ptr
00008280   _DLOG_4ch_i1Ptr
00008282   _DLOG_4ch_i2Ptr
00008284   _DLOG_4ch_i3Ptr
00008286   _DLOG_4ch_i4Ptr
000083b0   _DLOG_BuffInit
00000002   _DPL_ISR
00008dca   _DPL_Init
0000018d   _DSP28x_usDelay
00008ed9   _DacDrvCnf
00000880   _DevEmuRegs
00008b9a   _DeviceInit
00008056   _Dgain_I
00008050   _Dgain_V
00008062   _Dmax_I
0000804e   _Dmax_V
00006a00   _ECap1Regs
00006800   _EPwm1Regs
00006840   _EPwm2Regs
00006880   _EPwm3Regs
000068c0   _EPwm4Regs
00000d01   _EmuBMode
00000d00   _EmuKey
00008010   _FaultFlg
00000a80   _FlashRegs
00000d04   _Flash_CPUScaleFactor
00000d02   _Flash_CallbackPtr
00006f80   _GpioCtrlRegs
00006fc0   _GpioDataRegs
00006fe0   _GpioIntRegs
0000800a   _Gui_CompAmpltd
0000802a   _Gui_Dgain_I
00008018   _Gui_Dgain_V
00008029   _Gui_Igain_I
0000801a   _Gui_Igain_V
00008000   _Gui_Ipfc1
00008001   _Gui_Ipfc2
0000800b   _Gui_IpfcTotal
00008009   _Gui_Ipfc_AVG
00008023   _Gui_Pgain_I
00008019   _Gui_Pgain_V
00008022   _Gui_SetCompAmpltd
00008021   _Gui_Setshoulder
00008002   _Gui_VacLineAvg
00008004   _Gui_VpfcOut
00008027   _Gui_VpfcSet
00008024   _Gui_dlog_trig
00008028   _Gui_shoulder
00008007   _HRmode
00008070   _HistPtr
000080a8   _Hist_Ipfc1
000080a0   _Hist_Ipfc2
00008098   _Hist_IpfcTotal
00008090   _Hist_VacLineAvg
00008088   _Hist_VpfcOut
00007900   _I2caRegs
00008c7c   _ISR_ILLEGAL
0000804c   _Igain_I
00008054   _Igain_V
00000172   _InitFlash
0000800f   _Input_Power
00008040   _InvAvgSqr
00008034   _InvSineComp
0000805c   _InvVac
0000806e   _IpfcTotal
00008058   _Ipfc_avg
00008078   _IphA
00008076   _IphB
0000801b   _Itrip_level
00008020   _K_Ipfc1
0000801e   _K_Ipfc2
0000801f   _K_IpfcTotal
00008017   _K_VacLine
00008016   _K_VpfcOut
00008008   _LED_TaskPtr
0000803e   _LineGain
000081ae   _MATH_EMAVG_In1
000081b4   _MATH_EMAVG_In2
000081b2   _MATH_EMAVG_Multiplier1
000081b8   _MATH_EMAVG_Multiplier2
000081b0   _MATH_EMAVG_Out1
000081b6   _MATH_EMAVG_Out2
0000805e   _MaxQ24ref
00008c81   _MemCopy
00007060   _NmiIntruptRegs
00008074   _PFCDuty
00008030   _PFCIcmd
00008072   _PFCShareAdj
000082ae   _PFC_ICMD_Out1
000082ac   _PFC_ICMD_VacRect1
000082a8   _PFC_ICMD_Vcmd1
000082aa   _PFC_ICMD_VinvSqr1
000082b0   _PFC_ICMD_VmaxOverVmin1
0000829c   _PFC_INVSQR_In1
0000829e   _PFC_INVSQR_Out1
000082a2   _PFC_INVSQR_Vmin1
000082a0   _PFC_INVSQR_VminOverVmax1
000082a4   _PFC_INVSQR_tempdata1
00008c09   _PLLset
000081bc   _PWMDRV_PFC2PhiL_Adj1
000081ba   _PWMDRV_PFC2PhiL_Duty1
000081be   _PWMDRV_PFC2PhiL_Period1
00008c96   _PWM_PFC2PHIL_CNF
003d7fff   _PartIdRegs
0000804a   _Pgain_I
00008052   _Pgain_V
00008c41   _PieCntlInit
00000ce0   _PieCtrlRegs
00000d00   _PieVectTable
00008c60   _PieVectTableInit
00008014   _Pwr_mult
000089b3   _Ramp_Current
00008013   _Scale_Factor
00007050   _SciaRegs
00008025   _SerialCommsTimer
00007040   _SpiaRegs
00007010   _SysCtrlRegs
00000985   _SysPwrCtrlRegs
000080c0   _TrigSel
00008084   _VTimer0
00008080   _VTimer1
0000807a   _VTimer2
0000803a   _VacLineAvg
0000803c   _VacLineRect
00008042   _VacLineScaled
00008038   _VpfcOut
00008046   _VpfcSet
00008032   _VpfcSetSlewed
0000802c   _VpfcSlewRate
00008048   _VpfcVcmd
00008c01   _WDogDisable
00007070   _XIntruptRegs
00000780   __STACK_END
00000380   __STACK_SIZE
00000001   __TI_args_main
ffffffff   ___binit__
ffffffff   ___c_args__
00000191   ___cinit__
00008fa9   ___etext__
ffffffff   ___pinit__
000083b0   ___text__
00008f4a   __args_main
000081aa   __cleanup_ptr
000081ac   __dtors_ptr
000081a8   __lock
00008fa0   __nop
00008f9c   __register_lock
00008f98   __register_unlock
00000400   __stack
000081a6   __unlock
00008f7f   _abort
00008160   _arrayGetList
0000800c   _auto_compensate
00008e95   _c_int00
000080b0   _ePWM
00008f81   _exit
0000801c   _i
0000801d   _iK_VpfcSet
0000800e   _init_boost
00008003   _input_good
000083c3   _main
0000802e   _pfc_slew_temp
00008012   _range
00008044   _shoulder
00008011   _start_flag
0000805a   _temp_Scratch
00008064   _temp_handle
00008060   _temp_zero
00008140   _varGetList
00008180   _varSetBtnList
00008100   _varSetSldrList
00008120   _varSetTxtList
ffffffff   binit
00000191   cinit
00000000   code_start
00008fa9   etext
ffffffff   pinit


GLOBAL SYMBOLS: SORTED BY Symbol Address 

address    name
--------   ----
00000000   code_start
00000001   __TI_args_main
00000002   _DPL_ISR
00000172   _InitFlash
0000018d   _DSP28x_usDelay
00000191   ___cinit__
00000191   cinit
00000380   __STACK_SIZE
00000400   __stack
00000780   __STACK_END
00000880   _DevEmuRegs
00000985   _SysPwrCtrlRegs
00000a80   _FlashRegs
00000ae0   _CsmRegs
00000b00   _AdcResult
00000c00   _CpuTimer0Regs
00000c08   _CpuTimer1Regs
00000c10   _CpuTimer2Regs
00000ce0   _PieCtrlRegs
00000d00   _EmuKey
00000d00   _PieVectTable
00000d01   _EmuBMode
00000d02   _Flash_CallbackPtr
00000d04   _Flash_CPUScaleFactor
00006400   _Comp1Regs
00006420   _Comp2Regs
00006800   _EPwm1Regs
00006840   _EPwm2Regs
00006880   _EPwm3Regs
000068c0   _EPwm4Regs
00006a00   _ECap1Regs
00006f80   _GpioCtrlRegs
00006fc0   _GpioDataRegs
00006fe0   _GpioIntRegs
00007010   _SysCtrlRegs
00007040   _SpiaRegs
00007050   _SciaRegs
00007060   _NmiIntruptRegs
00007070   _XIntruptRegs
00007100   _AdcRegs
00007900   _I2caRegs
00008000   _Gui_Ipfc1
00008001   _Gui_Ipfc2
00008002   _Gui_VacLineAvg
00008003   _input_good
00008004   _Gui_VpfcOut
00008005   _ClearFaultFlg
00008006   _BlinkStatePtr
00008007   _HRmode
00008008   _LED_TaskPtr
00008009   _Gui_Ipfc_AVG
0000800a   _Gui_CompAmpltd
0000800b   _Gui_IpfcTotal
0000800c   _auto_compensate
0000800d   _Comp_temp1
0000800e   _init_boost
0000800f   _Input_Power
00008010   _FaultFlg
00008011   _start_flag
00008012   _range
00008013   _Scale_Factor
00008014   _Pwr_mult
00008015   _Comp_temp2
00008016   _K_VpfcOut
00008017   _K_VacLine
00008018   _Gui_Dgain_V
00008019   _Gui_Pgain_V
0000801a   _Gui_Igain_V
0000801b   _Itrip_level
0000801c   _i
0000801d   _iK_VpfcSet
0000801e   _K_Ipfc2
0000801f   _K_IpfcTotal
00008020   _K_Ipfc1
00008021   _Gui_Setshoulder
00008022   _Gui_SetCompAmpltd
00008023   _Gui_Pgain_I
00008024   _Gui_dlog_trig
00008025   _SerialCommsTimer
00008026   _CommsOKflg
00008027   _Gui_VpfcSet
00008028   _Gui_shoulder
00008029   _Gui_Igain_I
0000802a   _Gui_Dgain_I
0000802c   _VpfcSlewRate
0000802e   _pfc_slew_temp
00008030   _PFCIcmd
00008032   _VpfcSetSlewed
00008034   _InvSineComp
00008036   _CompAmpltd
00008038   _VpfcOut
0000803a   _VacLineAvg
0000803c   _VacLineRect
0000803e   _LineGain
00008040   _InvAvgSqr
00008042   _VacLineScaled
00008044   _shoulder
00008046   _VpfcSet
00008048   _VpfcVcmd
0000804a   _Pgain_I
0000804c   _Igain_I
0000804e   _Dmax_V
00008050   _Dgain_V
00008052   _Pgain_V
00008054   _Igain_V
00008056   _Dgain_I
00008058   _Ipfc_avg
0000805a   _temp_Scratch
0000805c   _InvVac
0000805e   _MaxQ24ref
00008060   _temp_zero
00008062   _Dmax_I
00008064   _temp_handle
00008066   _C_Task_Ptr
00008068   _A_Task_Ptr
0000806a   _B_Task_Ptr
0000806c   _Alpha_State_Ptr
0000806e   _IpfcTotal
00008070   _HistPtr
00008072   _PFCShareAdj
00008074   _PFCDuty
00008076   _IphB
00008078   _IphA
0000807a   _VTimer2
00008080   _VTimer1
00008084   _VTimer0
00008088   _Hist_VpfcOut
00008090   _Hist_VacLineAvg
00008098   _Hist_IpfcTotal
000080a0   _Hist_Ipfc2
000080a8   _Hist_Ipfc1
000080b0   _ePWM
000080c0   _TrigSel
000080d0   _ChSel
000080e0   _ACQPS
00008100   _varSetSldrList
00008120   _varSetTxtList
00008140   _varGetList
00008160   _arrayGetList
00008180   _varSetBtnList
000081a0   _Comp
000081a6   __unlock
000081a8   __lock
000081aa   __cleanup_ptr
000081ac   __dtors_ptr
000081ae   _MATH_EMAVG_In1
000081b0   _MATH_EMAVG_Out1
000081b2   _MATH_EMAVG_Multiplier1
000081b4   _MATH_EMAVG_In2
000081b6   _MATH_EMAVG_Out2
000081b8   _MATH_EMAVG_Multiplier2
000081ba   _PWMDRV_PFC2PhiL_Duty1
000081bc   _PWMDRV_PFC2PhiL_Adj1
000081be   _PWMDRV_PFC2PhiL_Period1
000081c0   _DBUFF3
000081e0   _DBUFF4
00008200   _DBUFF2
00008220   _DBUFF1
00008240   _CNTL_2P2Z_Ref2
00008242   _CNTL_2P2Z_Fdbk2
00008244   _CNTL_2P2Z_Out2
00008246   _CNTL_2P2Z_Coef2
00008248   _CNTL_2P2Z_DBUFF2
00008252   _CNTL_2P2Z_Ref1
00008254   _CNTL_2P2Z_Fdbk1
00008256   _CNTL_2P2Z_Out1
00008258   _CNTL_2P2Z_Coef1
0000825a   _CNTL_2P2Z_DBUFF1
00008264   _CNTL_2P2Z_CoefStruct1
00008272   _CNTL_2P2Z_CoefStruct2
00008280   _DLOG_4ch_i1Ptr
00008282   _DLOG_4ch_i2Ptr
00008284   _DLOG_4ch_i3Ptr
00008286   _DLOG_4ch_i4Ptr
00008288   _DLOG_4ch_buff1Ptr
0000828a   _DLOG_4ch_buff2Ptr
0000828c   _DLOG_4ch_buff3Ptr
0000828e   _DLOG_4ch_buff4Ptr
00008290   _DLOG_4ch_TrigVal
00008294   _DLOG_4ch_PreScalar
00008296   _DLOG_4ch_Size
0000829c   _PFC_INVSQR_In1
0000829e   _PFC_INVSQR_Out1
000082a0   _PFC_INVSQR_VminOverVmax1
000082a2   _PFC_INVSQR_Vmin1
000082a4   _PFC_INVSQR_tempdata1
000082a8   _PFC_ICMD_Vcmd1
000082aa   _PFC_ICMD_VinvSqr1
000082ac   _PFC_ICMD_VacRect1
000082ae   _PFC_ICMD_Out1
000082b0   _PFC_ICMD_VmaxOverVmin1
000082b2   _ADCDRV_4ch_RltPtrA
000082b4   _ADCDRV_4ch_RltPtrB
000082b6   _ADCDRV_4ch_RltPtrC
000082b8   _ADCDRV_4ch_RltPtrD
000083b0   .text
000083b0   _DLOG_BuffInit
000083b0   ___text__
000083c3   _main
00008639   _A0
00008652   _B0
00008668   _C0
0000867e   _A1
0000872b   _B1
00008879   _B2
00008884   _B3
00008943   _C1
0000897a   _C2
00008998   _C3
000089b3   _Ramp_Current
000089db   _ADC_SOC_CNF
00008b9a   _DeviceInit
00008c01   _WDogDisable
00008c09   _PLLset
00008c41   _PieCntlInit
00008c60   _PieVectTableInit
00008c7c   _ISR_ILLEGAL
00008c81   _MemCopy
00008c96   _PWM_PFC2PHIL_CNF
00008d47   FS$$DIV
00008dca   _DPL_Init
00008e3b   FS$$MPY
00008e95   _c_int00
00008ed9   _DacDrvCnf
00008f04   FS$$TOI
00008f29   FS$$TOUL
00008f4a   __args_main
00008f65   L$$TOFS
00008f7f   C$$EXIT
00008f7f   _abort
00008f81   _exit
00008f98   __register_unlock
00008f9c   __register_lock
00008fa0   __nop
00008fa9   ___etext__
00008fa9   etext
003d7fff   _PartIdRegs
003f7ff8   _CsmPwl
ffffffff   ___binit__
ffffffff   ___c_args__
ffffffff   ___pinit__
ffffffff   binit
ffffffff   pinit

[243 symbols]
